target datalayout = "e-m:e-p270:32:32-p271:32:32-p272:64:64-i64:64-i128:128-f80:128-n8:16:32:64-S128"
target triple = "x86_64-pc-linux-gnu"

%struct._lv_textarea_t = type { %struct._lv_obj_t, ptr, ptr, ptr, ptr, ptr, i32, i32, %struct.anon, i32, i32, i8 }
%struct._lv_obj_t = type { ptr, ptr, ptr, ptr, ptr, %struct.lv_area_t, i32, i16, i16 }
%struct.lv_area_t = type { i32, i32, i32, i32 }
%struct.anon = type { i32, i32, %struct.lv_area_t, i32, i8 }

; Function Attrs: nounwind uwtable
define void @lv_textarea_clear_selection(ptr noundef %0) #0 {
  %2 = alloca ptr, align 8
  %3 = alloca ptr, align 8
  store ptr %0, ptr %2, align 8, !tbaa !8
  br label %4

4:                                                ; preds = %1
  %5 = load ptr, ptr %2, align 8, !tbaa !8
  %6 = icmp ne ptr %5, null
  br i1 %6, label %11, label %7

7:                                                ; preds = %4
  br label %8

8:                                                ; preds = %7
  br label %9

9:                                                ; preds = %8
  br label %10

10:                                               ; preds = %9, %10
  br label %10

11:                                               ; preds = %4
  br label %12

12:                                               ; preds = %11
  call void @llvm.lifetime.start.p0(i64 8, ptr %3) #6
  %13 = load ptr, ptr %2, align 8, !tbaa !8
  store ptr %13, ptr %3, align 8, !tbaa !10
  %14 = load ptr, ptr %3, align 8, !tbaa !10
  %15 = getelementptr inbounds nuw %struct._lv_textarea_t, ptr %14, i32 0, i32 1
  %16 = load ptr, ptr %15, align 8, !tbaa !28
  %17 = call i32 @lv_label_get_text_selection_start(ptr noundef %16)
  %18 = icmp ne i32 %17, 65535
  br i1 %18, label %25, label %19

19:                                               ; preds = %12
  %20 = load ptr, ptr %3, align 8, !tbaa !10
  %21 = getelementptr inbounds nuw %struct._lv_textarea_t, ptr %20, i32 0, i32 1
  %22 = load ptr, ptr %21, align 8, !tbaa !28
  %23 = call i32 @lv_label_get_text_selection_end(ptr noundef %22)
  %24 = icmp ne i32 %23, 65535
  br i1 %24, label %25, label %32

25:                                               ; preds = %19, %12
  %26 = load ptr, ptr %3, align 8, !tbaa !10
  %27 = getelementptr inbounds nuw %struct._lv_textarea_t, ptr %26, i32 0, i32 1
  %28 = load ptr, ptr %27, align 8, !tbaa !28
  call void @lv_label_set_text_selection_start(ptr noundef %28, i32 noundef 65535)
  %29 = load ptr, ptr %3, align 8, !tbaa !10
  %30 = getelementptr inbounds nuw %struct._lv_textarea_t, ptr %29, i32 0, i32 1
  %31 = load ptr, ptr %30, align 8, !tbaa !28
  call void @lv_label_set_text_selection_end(ptr noundef %31, i32 noundef 65535)
  br label %32

32:                                               ; preds = %25, %19
  call void @llvm.lifetime.end.p0(i64 8, ptr %3) #6
  ret void
}

; Function Attrs: nounwind uwtable
define void @lv_textarea_set_text_selection(ptr noundef %0, i1 noundef zeroext %1) #0 {
  %3 = alloca ptr, align 8
  %4 = alloca i8, align 1
  %5 = alloca ptr, align 8
  store ptr %0, ptr %3, align 8, !tbaa !8
  %6 = zext i1 %1 to i8
  store i8 %6, ptr %4, align 1, !tbaa !56
  br label %7

7:                                                ; preds = %2
  %8 = load ptr, ptr %3, align 8, !tbaa !8
  %9 = icmp ne ptr %8, null
  br i1 %9, label %14, label %10

10:                                               ; preds = %7
  br label %11

11:                                               ; preds = %10
  br label %12

12:                                               ; preds = %11
  br label %13

13:                                               ; preds = %12, %13
  br label %13

14:                                               ; preds = %7
  br label %15

15:                                               ; preds = %14
  call void @llvm.lifetime.start.p0(i64 8, ptr %5) #6
  %16 = load ptr, ptr %3, align 8, !tbaa !8
  store ptr %16, ptr %5, align 8, !tbaa !10
  %17 = load i8, ptr %4, align 1, !tbaa !56, !range !58, !noundef !59
  %18 = trunc i8 %17 to i1
  %19 = zext i1 %18 to i8
  %20 = load ptr, ptr %5, align 8, !tbaa !10
  %21 = getelementptr inbounds nuw %struct._lv_textarea_t, ptr %20, i32 0, i32 11
  %22 = load i8, ptr %21, align 8
  %23 = and i8 %19, 1
  %24 = shl i8 %23, 1
  %25 = and i8 %22, -3
  %26 = or i8 %25, %24
  store i8 %26, ptr %21, align 8
  %27 = load i8, ptr %4, align 1, !tbaa !56, !range !58, !noundef !59
  %28 = trunc i8 %27 to i1
  br i1 %28, label %31, label %29

29:                                               ; preds = %15
  %30 = load ptr, ptr %3, align 8, !tbaa !8
  call void @lv_textarea_clear_selection(ptr noundef %30)
  br label %31

31:                                               ; preds = %29, %15
  call void @llvm.lifetime.end.p0(i64 8, ptr %5) #6
  ret void
}