; Function Attrs: nounwind uwtable
define void @lv_textarea_set_text_selection(ptr noundef captures(address_is_null) %0, i1 noundef zeroext %1) local_unnamed_addr #0 {
  %.not = icmp eq ptr %0, null
  br i1 %.not, label %.preheader, label %3

.preheader:                                       ; preds = %2, %.preheader
  br label %.preheader

3:                                                ; preds = %2
  %4 = getelementptr inbounds nuw i8, ptr %0, i64 152
  %5 = load i8, ptr %4, align 8
  %6 = select i1 %1, i8 2, i8 0
  %7 = and i8 %5, -3
  %8 = or disjoint i8 %7, %6
  store i8 %8, ptr %4, align 8
  br i1 %1, label %lv_textarea_clear_selection.exit, label %9

9:                                                ; preds = %3
  %10 = getelementptr inbounds nuw i8, ptr %0, i64 64
  %11 = load ptr, ptr %10, align 8, !tbaa !22
  %12 = tail call i32 @lv_label_get_text_selection_start(ptr noundef %11) #10
  %.not6.i = icmp eq i32 %12, 65535
  br i1 %.not6.i, label %13, label %16

13:                                               ; preds = %9
  %14 = load ptr, ptr %10, align 8, !tbaa !22
  %15 = tail call i32 @lv_label_get_text_selection_end(ptr noundef %14) #10
  %.not7.i = icmp eq i32 %15, 65535
  br i1 %.not7.i, label %lv_textarea_clear_selection.exit, label %16

16:                                               ; preds = %13, %9
  %17 = load ptr, ptr %10, align 8, !tbaa !22
  tail call void @lv_label_set_text_selection_start(ptr noundef %17, i32 noundef 65535) #10
  %18 = load ptr, ptr %10, align 8, !tbaa !22
  tail call void @lv_label_set_text_selection_end(ptr noundef %18, i32 noundef 65535) #10
  br label %lv_textarea_clear_selection.exit

lv_textarea_clear_selection.exit:                 ; preds = %16, %13, %3
  ret void
}